; Function Attrs: nounwind uwtable
define i32 @H5Ewalk2(i64 noundef %0, i32 noundef %1, ptr noundef %2, ptr noundef %3) local_unnamed_addr #0 {
  %5 = alloca %struct.H5E_walk_op_t, align 8
  %6 = alloca %struct.H5CX_node_t, align 8
  call void @llvm.lifetime.start.p0(i64 16, ptr nonnull %5) #7
  call void @llvm.lifetime.start.p0(i64 480, ptr nonnull %6) #7
  call void @llvm.memset.p0.i64(ptr noundef nonnull align 8 dereferenceable(480) %6, i8 0, i64 480, i1 false)
  %7 = load i8, ptr @H5_libinit_g, align 1, !tbaa !3, !range !7, !noundef !8
  %8 = trunc nuw i8 %7 to i1
  %9 = load i8, ptr @H5_libterm_g, align 1, !range !7
  %10 = trunc nuw i8 %9 to i1
  %11 = select i1 %8, i1 true, i1 %10
  br i1 %11, label %19, label %12, !prof !9

12:                                               ; preds = %4
  %13 = tail call i32 @H5_init_library() #7
  %14 = icmp slt i32 %13, 0
  br i1 %14, label %15, label %._crit_edge, !prof !10

._crit_edge:                                      ; preds = %12
  %.pre = load i8, ptr @H5_libterm_g, align 1, !range !7
  br label %19

15:                                               ; preds = %12
  %16 = load i64, ptr @H5E_FUNC_g, align 8, !tbaa !11
  %17 = load i64, ptr @H5E_CANTINIT_g, align 8, !tbaa !11
  %18 = tail call i32 (ptr, ptr, i32, i64, i64, ptr, ...) @H5E_printf_stack(ptr noundef nonnull @.str, ptr noundef nonnull @__func__.H5Ewalk2, i32 noundef 670, i64 noundef %16, i64 noundef %17, ptr noundef nonnull @.str.1) #7
  br label %.thread26

19:                                               ; preds = %._crit_edge, %4
  %20 = phi i8 [ %.pre, %._crit_edge ], [ %9, %4 ]
  %21 = load i8, ptr @H5E_init_g, align 1, !tbaa !3, !range !7, !noundef !8
  %22 = trunc nuw i8 %21 to i1
  %23 = trunc nuw i8 %20 to i1
  %24 = select i1 %22, i1 true, i1 %23
  br i1 %24, label %32, label %25, !prof !9

25:                                               ; preds = %19
  store i8 1, ptr @H5E_init_g, align 1, !tbaa !3
  %26 = tail call i32 @H5E__init_package() #7
  %27 = icmp slt i32 %26, 0
  br i1 %27, label %28, label %32, !prof !13

28:                                               ; preds = %25
  store i8 0, ptr @H5E_init_g, align 1, !tbaa !3
  %29 = load i64, ptr @H5E_FUNC_g, align 8, !tbaa !11
  %30 = load i64, ptr @H5E_CANTINIT_g, align 8, !tbaa !11
  %31 = tail call i32 (ptr, ptr, i32, i64, i64, ptr, ...) @H5E_printf_stack(ptr noundef nonnull @.str, ptr noundef nonnull @__func__.H5Ewalk2, i32 noundef 670, i64 noundef %29, i64 noundef %30, ptr noundef nonnull @.str.2) #7
  br label %.thread26

32:                                               ; preds = %19, %25
  %33 = call i32 @H5CX_push(ptr noundef nonnull %6) #7
  %34 = icmp slt i32 %33, 0
  br i1 %34, label %35, label %39, !prof !10

35:                                               ; preds = %32
  %36 = load i64, ptr @H5E_FUNC_g, align 8, !tbaa !11
  %37 = load i64, ptr @H5E_CANTSET_g, align 8, !tbaa !11
  %38 = call i32 (ptr, ptr, i32, i64, i64, ptr, ...) @H5E_printf_stack(ptr noundef nonnull @.str, ptr noundef nonnull @__func__.H5Ewalk2, i32 noundef 670, i64 noundef %36, i64 noundef %37, ptr noundef nonnull @.str.3) #7
  br label %.thread26

39:                                               ; preds = %32
  %40 = icmp eq i64 %0, 0
  br i1 %40, label %45, label %41

41:                                               ; preds = %39
  %42 = call i32 @H5E_clear_stack() #7
  %43 = call ptr @H5I_object_verify(i64 noundef %0, i32 noundef 14) #7
  %44 = icmp eq ptr %43, null
  br i1 %44, label %54, label %45, !prof !14

45:                                               ; preds = %39, %41
  %.014 = phi ptr [ %43, %41 ], [ @H5E_stack_g, %39 ]
  store i32 2, ptr %5, align 8, !tbaa !22
  %46 = getelementptr inbounds nuw i8, ptr %5, i64 8
  store ptr %2, ptr %46, align 8, !tbaa !24
  %47 = call i32 @H5E__walk(ptr noundef nonnull %.014, i32 noundef %1, ptr noundef nonnull %5, ptr noundef %3) #7
  %48 = icmp slt i32 %47, 0
  br i1 %48, label %49, label %.thread32

49:                                               ; preds = %45
  %50 = load i64, ptr @H5E_ERROR_g, align 8, !tbaa !11
  %51 = load i64, ptr @H5E_CANTLIST_g, align 8, !tbaa !11
  %52 = call i32 (ptr, ptr, i32, i64, i64, ptr, ...) @H5E_printf_stack(ptr noundef nonnull @.str, ptr noundef nonnull @__func__.H5Ewalk2, i32 noundef 689, i64 noundef %50, i64 noundef %51, ptr noundef nonnull @.str.37) #7
  br label %.thread32

.thread32:                                        ; preds = %45, %49
  %53 = call i32 @H5CX_pop(i1 noundef zeroext true) #7
  br label %60

54:                                               ; preds = %41
  %55 = load i64, ptr @H5E_ARGS_g, align 8, !tbaa !11
  %56 = load i64, ptr @H5E_BADTYPE_g, align 8, !tbaa !11
  %57 = call i32 (ptr, ptr, i32, i64, i64, ptr, ...) @H5E_printf_stack(ptr noundef nonnull @.str, ptr noundef nonnull @__func__.H5Ewalk2, i32 noundef 682, i64 noundef %55, i64 noundef %56, ptr noundef nonnull @.str.21) #7
  %58 = call i32 @H5CX_pop(i1 noundef zeroext true) #7
  br label %.thread26

.thread26:                                        ; preds = %35, %28, %15, %54
  %59 = call i32 @H5E_dump_api_stack() #7
  br label %60

60:                                               ; preds = %.thread32, %.thread26
  %.0132129 = phi i32 [ -1, %.thread26 ], [ %47, %.thread32 ]
  call void @llvm.lifetime.end.p0(i64 480, ptr nonnull %6) #7
  call void @llvm.lifetime.end.p0(i64 16, ptr nonnull %5) #7
  ret i32 %.0132129
}